ccopy_reg
_reconstructor
p0
(csklearn.svm.classes
LinearSVC
p1
c__builtin__
object
p2
Ntp3
Rp4
(dp5
S'loss'
p6
S'squared_hinge'
p7
sS'C'
p8
I4800
sS'max_iter'
p9
I1000
sS'class_weight'
p10
S'balanced'
p11
sS'verbose'
p12
I0
sS'fit_intercept'
p13
I01
sS'classes_'
p14
cnumpy.core.multiarray
_reconstruct
p15
(cnumpy
ndarray
p16
(I0
tp17
S'b'
p18
tp19
Rp20
(I1
(L3L
tp21
cnumpy
dtype
p22
(S'i8'
p23
I0
I1
tp24
Rp25
(I3
S'<'
p26
NNNI-1
I-1
I0
tp27
bI00
S'\x00\x00\x00\x00\x00\x00\x00\x00\x01\x00\x00\x00\x00\x00\x00\x00\x02\x00\x00\x00\x00\x00\x00\x00'
p28
tp29
bsS'n_iter_'
p30
cnumpy.core.multiarray
scalar
p31
(g22
(S'i4'
p32
I0
I1
tp33
Rp34
(I3
S'<'
p35
NNNI-1
I-1
I0
tp36
bS'\xe8\x03\x00\x00'
p37
tp38
Rp39
sS'penalty'
p40
S'l2'
p41
sS'multi_class'
p42
S'ovr'
p43
sS'random_state'
p44
I1
sS'_sklearn_version'
p45
S'0.18.1'
p46
sS'dual'
p47
I01
sS'tol'
p48
F0.0001
sS'coef_'
p49
g15
(g16
(I0
tp50
g18
tp51
Rp52
(I1
(L3L
L2L
tp53
g22
(S'f8'
p54
I0
I1
tp55
Rp56
(I3
S'<'
p57
NNNI-1
I-1
I0
tp58
bI01
S'H=3fh\xe07\xc0\r\xd7\xe7W\xc8\x85\xf4?|\xe77@\xc0m\xa9\xbf?\xac\xe0y\x02B\x08@U+\xb9\xe6\xd3\xce\xa0\xbf\xe5\xa1\xc7\x96\xac0\x02\xc0'
p59
tp60
bsS'intercept_'
p61
g15
(g16
(I0
tp62
g18
tp63
Rp64
(I1
(L3L
tp65
g56
I00
S'\x88ago\xb8\xcf$\xc0\xb6\x0fH\xa4\x7f\xf8\xd6\xbf\xc4_D#G\xff\xe9\xbf'
p66
tp67
bsS'intercept_scaling'
p68
I1
sb.